target datalayout = "e-m:e-p270:32:32-p271:32:32-p272:64:64-i64:64-i128:128-f80:128-n8:16:32:64-S128"
target triple = "x86_64-pc-linux-gnu"

%struct.pm_lex_mode = type { i32, %union.anon, ptr }
%union.anon = type { %struct.anon.3 }
%struct.anon.3 = type { %struct.pm_heredoc_lex_mode_t, ptr, ptr, i8 }
%struct.pm_heredoc_lex_mode_t = type { ptr, i64, i32, i32 }
%struct.pm_encoding_t = type { ptr, ptr, ptr, ptr, ptr, i8 }
%struct.pm_parser = type { i32, i32, i32, i32, i32, i32, i32, %struct.anon, ptr, ptr, %struct.pm_token_t, %struct.pm_token_t, ptr, ptr, %struct.pm_list_t, %struct.pm_list_t, %struct.pm_location_t, %struct.pm_list_t, %struct.pm_list_t, ptr, ptr, ptr, ptr, ptr, ptr, ptr, %struct.pm_string_t, %struct.pm_constant_pool_t, %struct.pm_newline_list_t, i16, %struct.pm_string_t, i32, ptr, ptr, i32, i8, i8, i8, i8, i8, i8, i8, i8, i8, i8, i8, i8, i8 }
%struct.anon = type { ptr, [4 x %struct.pm_lex_mode], i64 }
%struct.pm_token_t = type { i32, ptr, ptr }
%struct.pm_location_t = type { ptr, ptr }
%struct.pm_list_t = type { i64, ptr, ptr }
%struct.pm_constant_pool_t = type { ptr, ptr, i32, i32 }
%struct.pm_newline_list_t = type { ptr, i64, i64, ptr }
%struct.pm_string_t = type { ptr, i64, i32 }

@pm_encodings = external constant [90 x %struct.pm_encoding_t], align 16

; Function Attrs: nounwind sspstrong uwtable
define internal zeroext i1 @parser_lex_magic_comment_encoding_value(ptr noundef %0, ptr noundef %1, ptr noundef %2) #0 {
  %4 = alloca i1, align 1
  %5 = alloca ptr, align 8
  %6 = alloca ptr, align 8
  %7 = alloca ptr, align 8
  %8 = alloca ptr, align 8
  %9 = alloca i32, align 4
  store ptr %0, ptr %5, align 8, !tbaa !7
  store ptr %1, ptr %6, align 8, !tbaa !12
  store ptr %2, ptr %7, align 8, !tbaa !12
  call void @llvm.lifetime.start.p0(i64 8, ptr %8) #15
  %10 = load ptr, ptr %6, align 8, !tbaa !12
  %11 = load ptr, ptr %7, align 8, !tbaa !12
  %12 = call ptr @pm_encoding_find(ptr noundef %10, ptr noundef %11)
  store ptr %12, ptr %8, align 8, !tbaa !57
  %13 = load ptr, ptr %8, align 8, !tbaa !57
  %14 = icmp ne ptr %13, null
  br i1 %14, label %15, label %41

15:                                               ; preds = %3
  %16 = load ptr, ptr %5, align 8, !tbaa !7
  %17 = getelementptr inbounds nuw %struct.pm_parser, ptr %16, i32 0, i32 22
  %18 = load ptr, ptr %17, align 8, !tbaa !45
  %19 = load ptr, ptr %8, align 8, !tbaa !57
  %20 = icmp ne ptr %18, %19
  br i1 %20, label %21, label %35

21:                                               ; preds = %15
  %22 = load ptr, ptr %8, align 8, !tbaa !57
  %23 = load ptr, ptr %5, align 8, !tbaa !7
  %24 = getelementptr inbounds nuw %struct.pm_parser, ptr %23, i32 0, i32 22
  store ptr %22, ptr %24, align 8, !tbaa !45
  %25 = load ptr, ptr %5, align 8, !tbaa !7
  %26 = getelementptr inbounds nuw %struct.pm_parser, ptr %25, i32 0, i32 23
  %27 = load ptr, ptr %26, align 8, !tbaa !94
  %28 = icmp ne ptr %27, null
  br i1 %28, label %29, label %34

29:                                               ; preds = %21
  %30 = load ptr, ptr %5, align 8, !tbaa !7
  %31 = getelementptr inbounds nuw %struct.pm_parser, ptr %30, i32 0, i32 23
  %32 = load ptr, ptr %31, align 8, !tbaa !94
  %33 = load ptr, ptr %5, align 8, !tbaa !7
  call void %32(ptr noundef %33)
  br label %34

34:                                               ; preds = %29, %21
  br label %35

35:                                               ; preds = %34, %15
  %36 = load ptr, ptr %8, align 8, !tbaa !57
  %37 = icmp ne ptr %36, @pm_encodings
  %38 = load ptr, ptr %5, align 8, !tbaa !7
  %39 = getelementptr inbounds nuw %struct.pm_parser, ptr %38, i32 0, i32 42
  %40 = zext i1 %37 to i8
  store i8 %40, ptr %39, align 1, !tbaa !99
  store i1 true, ptr %4, align 1
  store i32 1, ptr %9, align 4
  br label %42

41:                                               ; preds = %3
  store i1 false, ptr %4, align 1
  store i32 1, ptr %9, align 4
  br label %42

42:                                               ; preds = %41, %35
  call void @llvm.lifetime.end.p0(i64 8, ptr %8) #15
  %43 = load i1, ptr %4, align 1
  ret i1 %43
}