; Function Attrs: nounwind sspstrong uwtable
define internal fastcc noundef zeroext i1 @parser_lex_magic_comment_encoding_value(ptr noundef %0, ptr noundef %1, ptr noundef %2) unnamed_addr #1 {
  %4 = tail call ptr @pm_encoding_find(ptr noundef %1, ptr noundef %2) #31
  %.not = icmp ne ptr %4, null
  br i1 %.not, label %5, label %16

5:                                                ; preds = %3
  %6 = getelementptr inbounds nuw i8, ptr %0, i64 520
  %7 = load ptr, ptr %6, align 8, !tbaa !40
  %.not15 = icmp eq ptr %7, %4
  br i1 %.not15, label %12, label %8

8:                                                ; preds = %5
  store ptr %4, ptr %6, align 8, !tbaa !40
  %9 = getelementptr inbounds nuw i8, ptr %0, i64 528
  %10 = load ptr, ptr %9, align 8, !tbaa !41
  %.not16 = icmp eq ptr %10, null
  br i1 %.not16, label %12, label %11

11:                                               ; preds = %8
  tail call void %10(ptr noundef nonnull %0) #31
  br label %12

12:                                               ; preds = %8, %11, %5
  %13 = icmp ne ptr %4, @pm_encodings
  %14 = getelementptr inbounds nuw i8, ptr %0, i64 699
  %15 = zext i1 %13 to i8
  store i8 %15, ptr %14, align 1, !tbaa !42
  br label %16

16:                                               ; preds = %3, %12
  ret i1 %.not
}